target datalayout = "e-m:e-p270:32:32-p271:32:32-p272:64:64-i64:64-i128:128-f80:128-n8:16:32:64-S128"
target triple = "x86_64-pc-linux-gnu"

%struct.WMAProDecodeCtx = type { ptr, ptr, [32832 x i8], %struct.PutBitContext, [8 x ptr], [8 x ptr], [8192 x float], [8 x ptr], i32, i8, i8, i8, i16, i16, i16, i16, i8, i8, i8, i8, i16, [8 x i8], [8 x [29 x i16]], [8 x [8 x [29 x i8]]], [8 x i16], %struct.GetBitContext, i32, i8, i8, i32, i32, i32, i8, i8, i8, i32, %struct.GetBitContext, i32, i8, i8, i8, i8, i16, i8, i8, [8 x i8], i8, i8, ptr, i8, i8, i8, [8 x %struct.WMAProChannelGrp], [8 x i8], [8 x %struct.WMAProChannelCtx] }
%struct.PutBitContext = type { i32, i32, ptr, ptr, ptr }
%struct.GetBitContext = type { ptr, ptr, i32, i32, i32 }
%struct.WMAProChannelGrp = type { i8, i8, [29 x i8], [64 x float], [8 x ptr] }
%struct.WMAProChannelCtx = type { i16, i8, i8, [32 x i16], [32 x i16], i8, i16, i8, i32, i8, i8, i32, [2 x [29 x i32]], i8, ptr, i8, ptr, i16, [14 x i8], [12288 x float] }

@.str.26 = private unnamed_addr constant [10 x i8] c" %s = %d\0A\00", align 1
@.str.27 = private unnamed_addr constant [20 x i8] c"ed sample bit depth\00", align 1
@.str.28 = private unnamed_addr constant [10 x i8] c" %s = %x\0A\00", align 1
@.str.29 = private unnamed_addr constant [16 x i8] c"ed decode flags\00", align 1
@.str.30 = private unnamed_addr constant [18 x i8] c"samples per frame\00", align 1
@.str.31 = private unnamed_addr constant [16 x i8] c"log2 frame size\00", align 1
@.str.32 = private unnamed_addr constant [18 x i8] c"max num subframes\00", align 1
@.str.33 = private unnamed_addr constant [11 x i8] c"len prefix\00", align 1
@.str.34 = private unnamed_addr constant [13 x i8] c"num channels\00", align 1

; Function Attrs: cold nounwind optsize uwtable
define internal void @dump_context(ptr noundef %0) #0 {
  %2 = alloca ptr, align 8
  store ptr %0, ptr %2, align 8, !tbaa !29
  %3 = load ptr, ptr %2, align 8, !tbaa !29
  %4 = getelementptr inbounds nuw %struct.WMAProDecodeCtx, ptr %3, i32 0, i32 0
  %5 = load ptr, ptr %4, align 16, !tbaa !95
  %6 = load ptr, ptr %2, align 8, !tbaa !29
  %7 = getelementptr inbounds nuw %struct.WMAProDecodeCtx, ptr %6, i32 0, i32 11
  %8 = load i8, ptr %7, align 2, !tbaa !98
  %9 = zext i8 %8 to i32
  call void (ptr, i32, ptr, ...) @av_log(ptr noundef %5, i32 noundef 48, ptr noundef @.str.26, ptr noundef @.str.27, i32 noundef %9)
  %10 = load ptr, ptr %2, align 8, !tbaa !29
  %11 = getelementptr inbounds nuw %struct.WMAProDecodeCtx, ptr %10, i32 0, i32 0
  %12 = load ptr, ptr %11, align 16, !tbaa !95
  %13 = load ptr, ptr %2, align 8, !tbaa !29
  %14 = getelementptr inbounds nuw %struct.WMAProDecodeCtx, ptr %13, i32 0, i32 8
  %15 = load i32, ptr %14, align 16, !tbaa !97
  call void (ptr, i32, ptr, ...) @av_log(ptr noundef %12, i32 noundef 48, ptr noundef @.str.28, ptr noundef @.str.29, i32 noundef %15)
  %16 = load ptr, ptr %2, align 8, !tbaa !29
  %17 = getelementptr inbounds nuw %struct.WMAProDecodeCtx, ptr %16, i32 0, i32 0
  %18 = load ptr, ptr %17, align 16, !tbaa !95
  %19 = load ptr, ptr %2, align 8, !tbaa !29
  %20 = getelementptr inbounds nuw %struct.WMAProDecodeCtx, ptr %19, i32 0, i32 12
  %21 = load i16, ptr %20, align 8, !tbaa !36
  %22 = zext i16 %21 to i32
  call void (ptr, i32, ptr, ...) @av_log(ptr noundef %18, i32 noundef 48, ptr noundef @.str.26, ptr noundef @.str.30, i32 noundef %22)
  %23 = load ptr, ptr %2, align 8, !tbaa !29
  %24 = getelementptr inbounds nuw %struct.WMAProDecodeCtx, ptr %23, i32 0, i32 0
  %25 = load ptr, ptr %24, align 16, !tbaa !95
  %26 = load ptr, ptr %2, align 8, !tbaa !29
  %27 = getelementptr inbounds nuw %struct.WMAProDecodeCtx, ptr %26, i32 0, i32 15
  %28 = load i16, ptr %27, align 2, !tbaa !99
  %29 = zext i16 %28 to i32
  call void (ptr, i32, ptr, ...) @av_log(ptr noundef %25, i32 noundef 48, ptr noundef @.str.26, ptr noundef @.str.31, i32 noundef %29)
  %30 = load ptr, ptr %2, align 8, !tbaa !29
  %31 = getelementptr inbounds nuw %struct.WMAProDecodeCtx, ptr %30, i32 0, i32 0
  %32 = load ptr, ptr %31, align 16, !tbaa !95
  %33 = load ptr, ptr %2, align 8, !tbaa !29
  %34 = getelementptr inbounds nuw %struct.WMAProDecodeCtx, ptr %33, i32 0, i32 17
  %35 = load i8, ptr %34, align 1, !tbaa !103
  %36 = zext i8 %35 to i32
  call void (ptr, i32, ptr, ...) @av_log(ptr noundef %32, i32 noundef 48, ptr noundef @.str.26, ptr noundef @.str.32, i32 noundef %36)
  %37 = load ptr, ptr %2, align 8, !tbaa !29
  %38 = getelementptr inbounds nuw %struct.WMAProDecodeCtx, ptr %37, i32 0, i32 0
  %39 = load ptr, ptr %38, align 16, !tbaa !95
  %40 = load ptr, ptr %2, align 8, !tbaa !29
  %41 = getelementptr inbounds nuw %struct.WMAProDecodeCtx, ptr %40, i32 0, i32 9
  %42 = load i8, ptr %41, align 4, !tbaa !101
  %43 = zext i8 %42 to i32
  call void (ptr, i32, ptr, ...) @av_log(ptr noundef %39, i32 noundef 48, ptr noundef @.str.26, ptr noundef @.str.33, i32 noundef %43)
  %44 = load ptr, ptr %2, align 8, !tbaa !29
  %45 = getelementptr inbounds nuw %struct.WMAProDecodeCtx, ptr %44, i32 0, i32 0
  %46 = load ptr, ptr %45, align 16, !tbaa !95
  %47 = load ptr, ptr %2, align 8, !tbaa !29
  %48 = getelementptr inbounds nuw %struct.WMAProDecodeCtx, ptr %47, i32 0, i32 43
  %49 = load i8, ptr %48, align 2, !tbaa !59
  %50 = sext i8 %49 to i32
  call void (ptr, i32, ptr, ...) @av_log(ptr noundef %46, i32 noundef 48, ptr noundef @.str.26, ptr noundef @.str.34, i32 noundef %50)
  ret void
}