; Function Attrs: cold nounwind optsize uwtable
define internal fastcc void @dump_context(ptr noundef readonly captures(none) %0) unnamed_addr #0 {
  %2 = load ptr, ptr %0, align 16, !tbaa !90
  %3 = getelementptr inbounds nuw i8, ptr %0, i64 65846
  %4 = load i8, ptr %3, align 2, !tbaa !98
  %5 = zext i8 %4 to i32
  tail call void (ptr, i32, ptr, ...) @av_log(ptr noundef %2, i32 noundef 48, ptr noundef nonnull @.str.26, ptr noundef nonnull @.str.27, i32 noundef %5) #11
  %6 = load ptr, ptr %0, align 16, !tbaa !90
  %7 = getelementptr inbounds nuw i8, ptr %0, i64 65840
  %8 = load i32, ptr %7, align 16, !tbaa !97
  tail call void (ptr, i32, ptr, ...) @av_log(ptr noundef %6, i32 noundef 48, ptr noundef nonnull @.str.28, ptr noundef nonnull @.str.29, i32 noundef %8) #11
  %9 = load ptr, ptr %0, align 16, !tbaa !90
  %10 = getelementptr inbounds nuw i8, ptr %0, i64 65848
  %11 = load i16, ptr %10, align 8, !tbaa !27
  %12 = zext i16 %11 to i32
  tail call void (ptr, i32, ptr, ...) @av_log(ptr noundef %9, i32 noundef 48, ptr noundef nonnull @.str.26, ptr noundef nonnull @.str.30, i32 noundef %12) #11
  %13 = load ptr, ptr %0, align 16, !tbaa !90
  %14 = getelementptr inbounds nuw i8, ptr %0, i64 65854
  %15 = load i16, ptr %14, align 2, !tbaa !99
  %16 = zext i16 %15 to i32
  tail call void (ptr, i32, ptr, ...) @av_log(ptr noundef %13, i32 noundef 48, ptr noundef nonnull @.str.26, ptr noundef nonnull @.str.31, i32 noundef %16) #11
  %17 = load ptr, ptr %0, align 16, !tbaa !90
  %18 = getelementptr inbounds nuw i8, ptr %0, i64 65857
  %19 = load i8, ptr %18, align 1, !tbaa !102
  %20 = zext i8 %19 to i32
  tail call void (ptr, i32, ptr, ...) @av_log(ptr noundef %17, i32 noundef 48, ptr noundef nonnull @.str.26, ptr noundef nonnull @.str.32, i32 noundef %20) #11
  %21 = load ptr, ptr %0, align 16, !tbaa !90
  %22 = getelementptr inbounds nuw i8, ptr %0, i64 65844
  %23 = load i8, ptr %22, align 4, !tbaa !100
  %24 = zext i8 %23 to i32
  tail call void (ptr, i32, ptr, ...) @av_log(ptr noundef %21, i32 noundef 48, ptr noundef nonnull @.str.26, ptr noundef nonnull @.str.33, i32 noundef %24) #11
  %25 = load ptr, ptr %0, align 16, !tbaa !90
  %26 = getelementptr inbounds nuw i8, ptr %0, i64 68314
  %27 = load i8, ptr %26, align 2, !tbaa !40
  %28 = sext i8 %27 to i32
  tail call void (ptr, i32, ptr, ...) @av_log(ptr noundef %25, i32 noundef 48, ptr noundef nonnull @.str.26, ptr noundef nonnull @.str.34, i32 noundef %28) #11
  ret void
}